; Function Attrs: mustprogress nounwind uwtable
define void @_ZN5boost6random13random_deviceD2Ev(ptr nocapture noundef nonnull readonly align 8 dereferenceable(8) %0) unnamed_addr #7 align 2 personality ptr @__gxx_personality_v0 {
  %2 = load ptr, ptr %0, align 8, !tbaa !13
  %3 = icmp eq ptr %2, null
  br i1 %3, label %23, label %4

4:                                                ; preds = %1
  %5 = getelementptr inbounds nuw i8, ptr %2, i64 32
  %6 = load i32, ptr %5, align 8, !tbaa !16
  %7 = invoke i32 @close(i32 noundef %6)
          to label %8 unwind label %20

8:                                                ; preds = %4
  %9 = icmp slt i32 %7, 0
  br i1 %9, label %10, label %11

10:                                               ; preds = %8
  invoke void @_ZN5boost6random13random_device4impl5errorEPKc(ptr noundef nonnull align 8 dereferenceable(36) %2, ptr noundef nonnull @.str.21)
          to label %11 unwind label %20

11:                                               ; preds = %10, %8
  %12 = load ptr, ptr %2, align 8, !tbaa !12
  %13 = getelementptr inbounds nuw i8, ptr %2, i64 16
  %14 = icmp eq ptr %12, %13
  br i1 %14, label %_ZNKSt7__cxx1112basic_stringIcSt11char_traitsIcESaIcEE11_M_is_localEv.exit.thread.i.i.i, label %_ZNKSt7__cxx1112basic_stringIcSt11char_traitsIcESaIcEE11_M_is_localEv.exit.i.i.i

_ZNKSt7__cxx1112basic_stringIcSt11char_traitsIcESaIcEE11_M_is_localEv.exit.thread.i.i.i: ; preds = %11
  %15 = getelementptr inbounds nuw i8, ptr %2, i64 8
  %16 = load i64, ptr %15, align 8, !tbaa !8
  %17 = icmp ult i64 %16, 16
  tail call void @llvm.assume(i1 %17)
  br label %_ZN5boost6random13random_device4implD2Ev.exit

_ZNKSt7__cxx1112basic_stringIcSt11char_traitsIcESaIcEE11_M_is_localEv.exit.i.i.i: ; preds = %11
  %18 = load i64, ptr %13, align 8, !tbaa !11
  %19 = add i64 %18, 1
  tail call void @_ZdlPvm(ptr noundef %12, i64 noundef %19) #28
  br label %_ZN5boost6random13random_device4implD2Ev.exit

20:                                               ; preds = %10, %4
  %21 = landingpad { ptr, i32 }
          catch ptr null
  %22 = extractvalue { ptr, i32 } %21, 0
  tail call void @__clang_call_terminate(ptr %22) #26
  unreachable

_ZN5boost6random13random_device4implD2Ev.exit:    ; preds = %_ZNKSt7__cxx1112basic_stringIcSt11char_traitsIcESaIcEE11_M_is_localEv.exit.thread.i.i.i, %_ZNKSt7__cxx1112basic_stringIcSt11char_traitsIcESaIcEE11_M_is_localEv.exit.i.i.i
  tail call void @_ZdlPvm(ptr noundef nonnull %2, i64 noundef 40) #28
  br label %23

23:                                               ; preds = %_ZN5boost6random13random_device4implD2Ev.exit, %1
  ret void
}